target datalayout = "e-m:e-p270:32:32-p271:32:32-p272:64:64-i64:64-i128:128-f80:128-n8:16:32:64-S128"
target triple = "x86_64-pc-linux-gnu"

@.str.5 = private unnamed_addr constant [33 x i8] c"../openssl/test/quic_wire_test.c\00", align 1
@.str.55 = private unnamed_addr constant [7 x i8] c"0x1234\00", align 1
@.str.81 = private unnamed_addr constant [7 x i8] c"0x9781\00", align 1
@.str.147 = private unnamed_addr constant [3 x i8] c"id\00", align 1
@.str.154 = private unnamed_addr constant [60 x i8] c"ossl_quic_wire_decode_transport_param_int(pkt, &id, &value)\00", align 1
@.str.155 = private unnamed_addr constant [22 x i8] c"fail < 0 || fail >= 7\00", align 1
@.str.156 = private unnamed_addr constant [6 x i8] c"value\00", align 1
@.str.157 = private unnamed_addr constant [23 x i8] c"fail < 0 || fail >= 14\00", align 1
@.str.158 = private unnamed_addr constant [7 x i8] c"0x2233\00", align 1
@.str.159 = private unnamed_addr constant [7 x i8] c"0x4545\00", align 1

; Function Attrs: nounwind uwtable
define internal i32 @encode_case_23_dec(ptr noundef %0, i64 noundef %1) #0 {
  %3 = alloca i32, align 4
  %4 = alloca ptr, align 8
  %5 = alloca i64, align 8
  %6 = alloca i64, align 8
  %7 = alloca i64, align 8
  %8 = alloca i32, align 4
  store ptr %0, ptr %4, align 8, !tbaa !40
  store i64 %1, ptr %5, align 8, !tbaa !19
  call void @llvm.lifetime.start.p0(i64 8, ptr %6) #5
  store i64 0, ptr %6, align 8, !tbaa !19
  call void @llvm.lifetime.start.p0(i64 8, ptr %7) #5
  store i64 0, ptr %7, align 8, !tbaa !19
  %9 = load ptr, ptr %4, align 8, !tbaa !40
  %10 = call i32 @ossl_quic_wire_decode_transport_param_int(ptr noundef %9, ptr noundef %6, ptr noundef %7)
  %11 = load i64, ptr %5, align 8, !tbaa !19
  %12 = icmp slt i64 %11, 0
  br i1 %12, label %16, label %13

13:                                               ; preds = %2
  %14 = load i64, ptr %5, align 8, !tbaa !19
  %15 = icmp sge i64 %14, 7
  br label %16

16:                                               ; preds = %13, %2
  %17 = phi i1 [ true, %2 ], [ %15, %13 ]
  %18 = zext i1 %17 to i32
  %19 = call i32 @test_int_eq(ptr noundef @.str.5, i32 noundef 1153, ptr noundef @.str.154, ptr noundef @.str.155, i32 noundef %10, i32 noundef %18)
  %20 = icmp ne i32 %19, 0
  br i1 %20, label %22, label %21

21:                                               ; preds = %16
  store i32 0, ptr %3, align 4
  store i32 1, ptr %8, align 4
  br label %81

22:                                               ; preds = %16
  %23 = load i64, ptr %5, align 8, !tbaa !19
  %24 = icmp slt i64 %23, 0
  br i1 %24, label %28, label %25

25:                                               ; preds = %22
  %26 = load i64, ptr %5, align 8, !tbaa !19
  %27 = icmp sge i64 %26, 7
  br i1 %27, label %28, label %33

28:                                               ; preds = %25, %22
  %29 = load i64, ptr %6, align 8, !tbaa !19
  %30 = call i32 @test_uint64_t_eq(ptr noundef @.str.5, i32 noundef 1157, ptr noundef @.str.147, ptr noundef @.str.55, i64 noundef %29, i64 noundef 4660)
  %31 = icmp ne i32 %30, 0
  br i1 %31, label %33, label %32

32:                                               ; preds = %28
  store i32 0, ptr %3, align 4
  store i32 1, ptr %8, align 4
  br label %81

33:                                               ; preds = %28, %25
  %34 = load i64, ptr %5, align 8, !tbaa !19
  %35 = icmp slt i64 %34, 0
  br i1 %35, label %39, label %36

36:                                               ; preds = %33
  %37 = load i64, ptr %5, align 8, !tbaa !19
  %38 = icmp sge i64 %37, 7
  br i1 %38, label %39, label %44

39:                                               ; preds = %36, %33
  %40 = load i64, ptr %7, align 8, !tbaa !19
  %41 = call i32 @test_uint64_t_eq(ptr noundef @.str.5, i32 noundef 1161, ptr noundef @.str.156, ptr noundef @.str.81, i64 noundef %40, i64 noundef 38785)
  %42 = icmp ne i32 %41, 0
  br i1 %42, label %44, label %43

43:                                               ; preds = %39
  store i32 0, ptr %3, align 4
  store i32 1, ptr %8, align 4
  br label %81

44:                                               ; preds = %39, %36
  %45 = load ptr, ptr %4, align 8, !tbaa !40
  %46 = call i32 @ossl_quic_wire_decode_transport_param_int(ptr noundef %45, ptr noundef %6, ptr noundef %7)
  %47 = load i64, ptr %5, align 8, !tbaa !19
  %48 = icmp slt i64 %47, 0
  br i1 %48, label %52, label %49

49:                                               ; preds = %44
  %50 = load i64, ptr %5, align 8, !tbaa !19
  %51 = icmp sge i64 %50, 14
  br label %52

52:                                               ; preds = %49, %44
  %53 = phi i1 [ true, %44 ], [ %51, %49 ]
  %54 = zext i1 %53 to i32
  %55 = call i32 @test_int_eq(ptr noundef @.str.5, i32 noundef 1166, ptr noundef @.str.154, ptr noundef @.str.157, i32 noundef %46, i32 noundef %54)
  %56 = icmp ne i32 %55, 0
  br i1 %56, label %58, label %57

57:                                               ; preds = %52
  store i32 0, ptr %3, align 4
  store i32 1, ptr %8, align 4
  br label %81

58:                                               ; preds = %52
  %59 = load i64, ptr %5, align 8, !tbaa !19
  %60 = icmp slt i64 %59, 0
  br i1 %60, label %64, label %61

61:                                               ; preds = %58
  %62 = load i64, ptr %5, align 8, !tbaa !19
  %63 = icmp sge i64 %62, 14
  br i1 %63, label %64, label %69

64:                                               ; preds = %61, %58
  %65 = load i64, ptr %6, align 8, !tbaa !19
  %66 = call i32 @test_uint64_t_eq(ptr noundef @.str.5, i32 noundef 1170, ptr noundef @.str.147, ptr noundef @.str.158, i64 noundef %65, i64 noundef 8755)
  %67 = icmp ne i32 %66, 0
  br i1 %67, label %69, label %68

68:                                               ; preds = %64
  store i32 0, ptr %3, align 4
  store i32 1, ptr %8, align 4
  br label %81

69:                                               ; preds = %64, %61
  %70 = load i64, ptr %5, align 8, !tbaa !19
  %71 = icmp slt i64 %70, 0
  br i1 %71, label %75, label %72

72:                                               ; preds = %69
  %73 = load i64, ptr %5, align 8, !tbaa !19
  %74 = icmp sge i64 %73, 14
  br i1 %74, label %75, label %80

75:                                               ; preds = %72, %69
  %76 = load i64, ptr %7, align 8, !tbaa !19
  %77 = call i32 @test_uint64_t_eq(ptr noundef @.str.5, i32 noundef 1174, ptr noundef @.str.156, ptr noundef @.str.159, i64 noundef %76, i64 noundef 17733)
  %78 = icmp ne i32 %77, 0
  br i1 %78, label %80, label %79

79:                                               ; preds = %75
  store i32 0, ptr %3, align 4
  store i32 1, ptr %8, align 4
  br label %81

80:                                               ; preds = %75, %72
  store i32 1, ptr %3, align 4
  store i32 1, ptr %8, align 4
  br label %81

81:                                               ; preds = %80, %79, %68, %57, %43, %32, %21
  call void @llvm.lifetime.end.p0(i64 8, ptr %7) #5
  call void @llvm.lifetime.end.p0(i64 8, ptr %6) #5
  %82 = load i32, ptr %3, align 4
  ret i32 %82
}