; Function Attrs: nounwind uwtable
define internal range(i32 0, 2) i32 @encode_case_23_dec(ptr noundef %0, i64 noundef %1) #0 {
  %3 = alloca i64, align 8
  %4 = alloca i64, align 8
  call void @llvm.lifetime.start.p0(i64 8, ptr nonnull %3) #4
  store i64 0, ptr %3, align 8, !tbaa !13
  call void @llvm.lifetime.start.p0(i64 8, ptr nonnull %4) #4
  store i64 0, ptr %4, align 8, !tbaa !13
  %5 = call i32 @ossl_quic_wire_decode_transport_param_int(ptr noundef %0, ptr noundef nonnull %3, ptr noundef nonnull %4) #4
  %6 = icmp ugt i64 %1, 6
  %7 = zext i1 %6 to i32
  %8 = call i32 @test_int_eq(ptr noundef nonnull @.str.5, i32 noundef 1153, ptr noundef nonnull @.str.154, ptr noundef nonnull @.str.155, i32 noundef %5, i32 noundef %7) #4
  %.not = icmp eq i32 %8, 0
  br i1 %.not, label %27, label %9

9:                                                ; preds = %2
  br i1 %6, label %10, label %.critedge

10:                                               ; preds = %9
  %11 = load i64, ptr %3, align 8, !tbaa !13
  %12 = call i32 @test_uint64_t_eq(ptr noundef nonnull @.str.5, i32 noundef 1157, ptr noundef nonnull @.str.147, ptr noundef nonnull @.str.55, i64 noundef %11, i64 noundef 4660) #4
  %.not21 = icmp eq i32 %12, 0
  br i1 %.not21, label %27, label %13

13:                                               ; preds = %10
  %14 = load i64, ptr %4, align 8, !tbaa !13
  %15 = call i32 @test_uint64_t_eq(ptr noundef nonnull @.str.5, i32 noundef 1161, ptr noundef nonnull @.str.156, ptr noundef nonnull @.str.81, i64 noundef %14, i64 noundef 38785) #4
  %.not22 = icmp eq i32 %15, 0
  br i1 %.not22, label %27, label %.critedge

.critedge:                                        ; preds = %9, %13
  %16 = call i32 @ossl_quic_wire_decode_transport_param_int(ptr noundef %0, ptr noundef nonnull %3, ptr noundef nonnull %4) #4
  %17 = icmp ugt i64 %1, 13
  %18 = zext i1 %17 to i32
  %19 = call i32 @test_int_eq(ptr noundef nonnull @.str.5, i32 noundef 1166, ptr noundef nonnull @.str.154, ptr noundef nonnull @.str.157, i32 noundef %16, i32 noundef %18) #4
  %.not23 = icmp eq i32 %19, 0
  br i1 %.not23, label %27, label %20

20:                                               ; preds = %.critedge
  br i1 %17, label %21, label %.critedge27

21:                                               ; preds = %20
  %22 = load i64, ptr %3, align 8, !tbaa !13
  %23 = call i32 @test_uint64_t_eq(ptr noundef nonnull @.str.5, i32 noundef 1170, ptr noundef nonnull @.str.147, ptr noundef nonnull @.str.158, i64 noundef %22, i64 noundef 8755) #4
  %.not24 = icmp eq i32 %23, 0
  br i1 %.not24, label %27, label %24

24:                                               ; preds = %21
  %25 = load i64, ptr %4, align 8, !tbaa !13
  %26 = call i32 @test_uint64_t_eq(ptr noundef nonnull @.str.5, i32 noundef 1174, ptr noundef nonnull @.str.156, ptr noundef nonnull @.str.159, i64 noundef %25, i64 noundef 17733) #4
  %.not25 = icmp eq i32 %26, 0
  br i1 %.not25, label %27, label %.critedge27

.critedge27:                                      ; preds = %20, %24
  br label %27

27:                                               ; preds = %24, %21, %.critedge, %13, %10, %2, %.critedge27
  %.0 = phi i32 [ 1, %.critedge27 ], [ 0, %2 ], [ 0, %10 ], [ 0, %13 ], [ 0, %.critedge ], [ 0, %21 ], [ 0, %24 ]
  call void @llvm.lifetime.end.p0(i64 8, ptr nonnull %4) #4
  call void @llvm.lifetime.end.p0(i64 8, ptr nonnull %3) #4
  ret i32 %.0
}